target datalayout = "e-m:e-p270:32:32-p271:32:32-p272:64:64-i64:64-i128:128-f80:128-n8:16:32:64-S128"
target triple = "x86_64-pc-linux-gnu"

%struct._asn1_ctx_t = type { i32, i32, i8, ptr, ptr, ptr, ptr, ptr, %struct.anon, %struct.anon.2, %struct.anon.3, ptr }
%struct.anon = type { i32, i8, i8, i8, ptr, ptr, i32, i32, ptr, ptr, ptr, %union.anon }
%union.anon = type { %struct.anon.0 }
%struct.anon.0 = type { ptr }
%struct.anon.2 = type { ptr, ptr, ptr }
%struct.anon.3 = type { i32, i8, ptr, i32, i32, ptr, ptr, ptr, %union.anon.4 }
%union.anon.4 = type { %struct.anon.5 }
%struct.anon.5 = type { ptr }

; Function Attrs: null_pointer_is_valid sspstrong uwtable
define internal i32 @dissect_p1_T_private_extension(i1 noundef zeroext %0, ptr noundef %1, i32 noundef %2, ptr noundef %3, ptr noundef %4, i32 noundef %5) #0 {
  %7 = alloca i8, align 1
  %8 = alloca ptr, align 8
  %9 = alloca i32, align 4
  %10 = alloca ptr, align 8
  %11 = alloca ptr, align 8
  %12 = alloca i32, align 4
  %13 = zext i1 %0 to i8
  store i8 %13, ptr %7, align 1
  store ptr %1, ptr %8, align 8
  store i32 %2, ptr %9, align 4
  store ptr %3, ptr %10, align 8
  store ptr %4, ptr %11, align 8
  store i32 %5, ptr %12, align 4
  %14 = load ptr, ptr %10, align 8
  %15 = getelementptr inbounds nuw %struct._asn1_ctx_t, ptr %14, i32 0, i32 8
  %16 = getelementptr inbounds nuw %struct.anon, ptr %15, i32 0, i32 3
  store i8 0, ptr %16, align 2
  %17 = load ptr, ptr %10, align 8
  %18 = getelementptr inbounds nuw %struct._asn1_ctx_t, ptr %17, i32 0, i32 8
  %19 = getelementptr inbounds nuw %struct.anon, ptr %18, i32 0, i32 5
  store ptr null, ptr %19, align 8
  %20 = load i8, ptr %7, align 1, !range !6, !noundef !7
  %21 = trunc i8 %20 to i1
  %22 = load ptr, ptr %10, align 8
  %23 = load ptr, ptr %11, align 8
  %24 = load ptr, ptr %8, align 8
  %25 = load i32, ptr %9, align 4
  %26 = load i32, ptr %12, align 4
  %27 = load ptr, ptr %10, align 8
  %28 = getelementptr inbounds nuw %struct._asn1_ctx_t, ptr %27, i32 0, i32 8
  %29 = getelementptr inbounds nuw %struct.anon, ptr %28, i32 0, i32 5
  %30 = call i32 @dissect_ber_object_identifier_str(i1 noundef zeroext %21, ptr noundef %22, ptr noundef %23, ptr noundef %24, i32 noundef %25, i32 noundef %26, ptr noundef %29)
  store i32 %30, ptr %9, align 4
  %31 = load ptr, ptr %10, align 8
  %32 = getelementptr inbounds nuw %struct._asn1_ctx_t, ptr %31, i32 0, i32 8
  %33 = getelementptr inbounds nuw %struct.anon, ptr %32, i32 0, i32 5
  %34 = load ptr, ptr %33, align 8
  %35 = icmp ne ptr %34, null
  %36 = select i1 %35, i32 1, i32 0
  %37 = icmp ne i32 %36, 0
  %38 = load ptr, ptr %10, align 8
  %39 = getelementptr inbounds nuw %struct._asn1_ctx_t, ptr %38, i32 0, i32 8
  %40 = getelementptr inbounds nuw %struct.anon, ptr %39, i32 0, i32 2
  %41 = zext i1 %37 to i8
  store i8 %41, ptr %40, align 1
  %42 = load i32, ptr %9, align 4
  ret i32 %42
}