; Function Attrs: null_pointer_is_valid sspstrong uwtable
define internal i32 @dissect_p1_T_private_extension(i1 noundef zeroext %0, ptr noundef %1, i32 noundef %2, ptr noundef initializes((62, 63), (72, 80)) %3, ptr noundef %4, i32 noundef %5) #0 {
  %7 = getelementptr inbounds nuw i8, ptr %3, i64 62
  store i8 0, ptr %7, align 2
  %8 = getelementptr inbounds nuw i8, ptr %3, i64 72
  store ptr null, ptr %8, align 8
  %9 = tail call i32 @dissect_ber_object_identifier_str(i1 noundef zeroext %0, ptr noundef %3, ptr noundef %4, ptr noundef %1, i32 noundef %2, i32 noundef %5, ptr noundef nonnull %8)
  %10 = load ptr, ptr %8, align 8
  %11 = icmp ne ptr %10, null
  %12 = getelementptr inbounds nuw i8, ptr %3, i64 61
  %13 = zext i1 %11 to i8
  store i8 %13, ptr %12, align 1
  ret i32 %9
}